; ModuleID = '11/633.c'
source_filename = "11/633.c"
target datalayout = "e-m:e-p270:32:32-p271:32:32-p272:64:64-i64:64-f80:128-n8:16:32:64-S128"
target triple = "x86_64-pc-linux-gnu"

@__const.main.dd = private unnamed_addr constant [12 x i32] [i32 31, i32 28, i32 31, i32 30, i32 31, i32 30, i32 31, i32 31, i32 30, i32 31, i32 30, i32 31], align 16
@.str = private unnamed_addr constant [7 x i8] c"%d%d%d\00", align 1
@.str.1 = private unnamed_addr constant [3 x i8] c"%d\00", align 1

; Function Attrs: noinline nounwind uwtable
define dso_local i32 @main() #0 {
  %1 = alloca i32, align 4
  %2 = alloca i32, align 4
  %3 = alloca i32, align 4
  %4 = alloca i32, align 4
  %5 = alloca [12 x i32], align 16
  %6 = alloca i32, align 4
  %7 = alloca i32, align 4
  store i32 0, i32* %1, align 4
  store i32 0, i32* %2, align 4
  store i32 0, i32* %3, align 4
  store i32 0, i32* %4, align 4
  %8 = bitcast [12 x i32]* %5 to i8*
  call void @llvm.memcpy.p0i8.p0i8.i64(i8* align 16 %8, i8* align 16 bitcast ([12 x i32]* @__const.main.dd to i8*), i64 48, i1 false)
  store i32 0, i32* %6, align 4
  %9 = call i32 (i8*, ...) @__isoc99_scanf(i8* getelementptr inbounds ([7 x i8], [7 x i8]* @.str, i64 0, i64 0), i32* %2, i32* %3, i32* %4)
  %10 = load i32, i32* %2, align 4
  %11 = srem i32 %10, 400
  %12 = icmp eq i32 %11, 0
  br i1 %12, label %21, label %13

13:                                               ; preds = %0
  %14 = load i32, i32* %2, align 4
  %15 = srem i32 %14, 4
  %16 = icmp eq i32 %15, 0
  br i1 %16, label %17, label %23

17:                                               ; preds = %13
  %18 = load i32, i32* %2, align 4
  %19 = srem i32 %18, 100
  %20 = icmp ne i32 %19, 0
  br i1 %20, label %21, label %23

21:                                               ; preds = %17, %0
  %22 = getelementptr inbounds [12 x i32], [12 x i32]* %5, i64 0, i64 1
  store i32 29, i32* %22, align 4
  br label %23

23:                                               ; preds = %21, %17, %13
  store i32 0, i32* %7, align 4
  br label %24

24:                                               ; preds = %36, %23
  %25 = load i32, i32* %7, align 4
  %26 = load i32, i32* %3, align 4
  %27 = sub nsw i32 %26, 1
  %28 = icmp slt i32 %25, %27
  br i1 %28, label %29, label %39

29:                                               ; preds = %24
  %30 = load i32, i32* %6, align 4
  %31 = load i32, i32* %7, align 4
  %32 = sext i32 %31 to i64
  %33 = getelementptr inbounds [12 x i32], [12 x i32]* %5, i64 0, i64 %32
  %34 = load i32, i32* %33, align 4
  %35 = add nsw i32 %30, %34
  store i32 %35, i32* %6, align 4
  br label %36

36:                                               ; preds = %29
  %37 = load i32, i32* %7, align 4
  %38 = add nsw i32 %37, 1
  store i32 %38, i32* %7, align 4
  br label %24

39:                                               ; preds = %24
  %40 = load i32, i32* %6, align 4
  %41 = load i32, i32* %4, align 4
  %42 = add nsw i32 %40, %41
  store i32 %42, i32* %6, align 4
  %43 = load i32, i32* %6, align 4
  %44 = call i32 (i8*, ...) @printf(i8* getelementptr inbounds ([3 x i8], [3 x i8]* @.str.1, i64 0, i64 0), i32 %43)
  ret i32 0
}

; Function Attrs: argmemonly nounwind willreturn
declare void @llvm.memcpy.p0i8.p0i8.i64(i8* noalias nocapture writeonly, i8* noalias nocapture readonly, i64, i1 immarg) #1

declare dso_local i32 @__isoc99_scanf(i8*, ...) #2

declare dso_local i32 @printf(i8*, ...) #2


!llvm.module.flags = !{!0}
!llvm.ident = !{!1}

!0 = !{i32 1, !"wchar_size", i32 4}
!1 = !{!"clang version 10.0.0-4ubuntu1 "}
